target datalayout = "e-m:e-p270:32:32-p271:32:32-p272:64:64-i64:64-i128:128-f80:128-n8:16:32:64-S128"
target triple = "x86_64-pc-linux-gnu"

%struct.IDAMemRec = type { ptr, double, ptr, ptr, i32, double, double, ptr, i32, i32, ptr, ptr, i32, i32, i32, ptr, ptr, i32, i32, double, double, ptr, i32, i32, i32, i32, ptr, ptr, i32, ptr, ptr, ptr, i32, double, i32, i32, double, ptr, ptr, ptr, i32, ptr, ptr, i32, i32, i32, double, ptr, ptr, ptr, [6 x ptr], [6 x double], [6 x double], [6 x double], [6 x double], [6 x double], ptr, ptr, ptr, ptr, ptr, ptr, ptr, ptr, ptr, ptr, ptr, ptr, ptr, ptr, ptr, ptr, ptr, [6 x ptr], ptr, ptr, ptr, ptr, [6 x ptr], ptr, ptr, ptr, ptr, ptr, ptr, ptr, ptr, ptr, ptr, ptr, ptr, ptr, ptr, ptr, ptr, [6 x ptr], ptr, ptr, ptr, ptr, ptr, double, ptr, ptr, i32, i32, i32, i32, i32, i32, i32, i32, double, double, double, i32, double, i32, i32, i32, i32, i32, double, double, double, double, double, double, double, double, double, double, double, double, double, double, double, double, double, i32, i32, i32, i32, i64, double, double, double, double, double, double, double, double, double, i64, i64, i64, i64, i64, i64, i64, i64, i64, i64, i64, i64, i64, i64, i64, i64, i64, i64, i64, i64, i64, i64, i64, i64, i64, i64, double, i32, i32, i32, i32, i32, i32, i32, i32, i32, i32, i32, i32, i32, ptr, i32, ptr, i32, ptr, i32, ptr, ptr, ptr, ptr, ptr, ptr, i32, i32, ptr, ptr, ptr, ptr, ptr, ptr, ptr, double, i32, i32, ptr, i32, ptr, ptr, double, double, double, ptr, ptr, ptr, double, double, i32, i32, i64, ptr, i32, ptr, [5 x double], ptr, ptr, i32, ptr, i32 }

@.str = private unnamed_addr constant [111 x i8] c"generated/home/dtcxzyw/WorkSpace/Projects/compilers/llvm-opt-benchmark/bench/sundials/sundials/src/idas/idas.c\00", align 1
@.str.3 = private unnamed_addr constant [24 x i8] c"ida_mem = NULL illegal.\00", align 1
@.str.57 = private unnamed_addr constant [88 x i8] c"At t = %lg, , the quadrature right-hand side routine failed in an unrecoverable manner.\00", align 1
@.str.62 = private unnamed_addr constant [100 x i8] c"At t = %lg, , the sensitivity quadrature right-hand side routine failed in an unrecoverable manner.\00", align 1
@__func__.IDAHandleFailure = private unnamed_addr constant [17 x i8] c"IDAHandleFailure\00", align 1
@.str.70 = private unnamed_addr constant [77 x i8] c"At t = %lg and h = %lg, the error test failed repeatedly or with |h| = hmin.\00", align 1
@.str.71 = private unnamed_addr constant [88 x i8] c"At t = %lg and h = %lg, the corrector convergence failed repeatedly or with |h| = hmin.\00", align 1
@.str.72 = private unnamed_addr constant [58 x i8] c"At t = %lg, the linear solver setup failed unrecoverably.\00", align 1
@.str.73 = private unnamed_addr constant [58 x i8] c"At t = %lg, the linear solver solve failed unrecoverably.\00", align 1
@.str.74 = private unnamed_addr constant [50 x i8] c"At t = %lg, repeated recoverable residual errors.\00", align 1
@.str.75 = private unnamed_addr constant [56 x i8] c"At t = %lg, the residual function failed unrecoverably.\00", align 1
@.str.76 = private unnamed_addr constant [77 x i8] c"At t = %lg, repeated recoverable quadrature right-hand side function errors.\00", align 1
@.str.77 = private unnamed_addr constant [71 x i8] c"At t = %lg, repeated recoverable sensitivity residual function errors.\00", align 1
@.str.78 = private unnamed_addr constant [82 x i8] c"At t = %lg, , the sensitivity residual routine failed in an unrecoverable manner.\00", align 1
@.str.79 = private unnamed_addr constant [89 x i8] c"At t = %lg, repeated recoverable sensitivity quadrature right-hand side function errors.\00", align 1
@.str.80 = private unnamed_addr constant [54 x i8] c"At t = %lg, unable to satisfy inequality constraints.\00", align 1
@.str.81 = private unnamed_addr constant [60 x i8] c"At t = %lg, , the nonlinear solver was passed a NULL input.\00", align 1
@.str.82 = private unnamed_addr constant [63 x i8] c"At t = %lg, , the nonlinear solver setup failed unrecoverably.\00", align 1
@.str.83 = private unnamed_addr constant [70 x i8] c"At t = %lg, , the nonlinear solver failed in an unrecoverable manner.\00", align 1
@.str.84 = private unnamed_addr constant [112 x i8] c"IDA encountered an unrecognized error. Please report this to the Sundials developers at sundials-users@llnl.gov\00", align 1

; Function Attrs: nounwind uwtable
define internal i32 @IDAHandleFailure(ptr noundef %0, i32 noundef %1) #0 {
  %3 = alloca i32, align 4
  %4 = alloca ptr, align 8
  %5 = alloca i32, align 4
  store ptr %0, ptr %4, align 8, !tbaa !8
  store i32 %1, ptr %5, align 4, !tbaa !114
  %6 = load i32, ptr %5, align 4, !tbaa !114
  switch i32 %6, label %94 [
    i32 -3, label %7
    i32 -4, label %15
    i32 -6, label %23
    i32 -7, label %28
    i32 -9, label %33
    i32 -8, label %38
    i32 -33, label %43
    i32 -31, label %48
    i32 -42, label %53
    i32 -41, label %58
    i32 -53, label %63
    i32 -51, label %68
    i32 -11, label %73
    i32 -20, label %78
    i32 -9999, label %79
    i32 -16, label %84
    i32 -17, label %89
  ]

7:                                                ; preds = %2
  %8 = load ptr, ptr %4, align 8, !tbaa !8
  %9 = load ptr, ptr %4, align 8, !tbaa !8
  %10 = getelementptr inbounds nuw %struct.IDAMemRec, ptr %9, i32 0, i32 127
  %11 = load double, ptr %10, align 8, !tbaa !137
  %12 = load ptr, ptr %4, align 8, !tbaa !8
  %13 = getelementptr inbounds nuw %struct.IDAMemRec, ptr %12, i32 0, i32 124
  %14 = load double, ptr %13, align 8, !tbaa !240
  call void (ptr, i32, i32, ptr, ptr, ptr, ...) @IDAProcessError(ptr noundef %8, i32 noundef -3, i32 noundef 5730, ptr noundef @__func__.IDAHandleFailure, ptr noundef @.str, ptr noundef @.str.70, double noundef %11, double noundef %14)
  store i32 -3, ptr %3, align 4
  br label %96

15:                                               ; preds = %2
  %16 = load ptr, ptr %4, align 8, !tbaa !8
  %17 = load ptr, ptr %4, align 8, !tbaa !8
  %18 = getelementptr inbounds nuw %struct.IDAMemRec, ptr %17, i32 0, i32 127
  %19 = load double, ptr %18, align 8, !tbaa !137
  %20 = load ptr, ptr %4, align 8, !tbaa !8
  %21 = getelementptr inbounds nuw %struct.IDAMemRec, ptr %20, i32 0, i32 124
  %22 = load double, ptr %21, align 8, !tbaa !240
  call void (ptr, i32, i32, ptr, ptr, ptr, ...) @IDAProcessError(ptr noundef %16, i32 noundef -4, i32 noundef 5735, ptr noundef @__func__.IDAHandleFailure, ptr noundef @.str, ptr noundef @.str.71, double noundef %19, double noundef %22)
  store i32 -4, ptr %3, align 4
  br label %96

23:                                               ; preds = %2
  %24 = load ptr, ptr %4, align 8, !tbaa !8
  %25 = load ptr, ptr %4, align 8, !tbaa !8
  %26 = getelementptr inbounds nuw %struct.IDAMemRec, ptr %25, i32 0, i32 127
  %27 = load double, ptr %26, align 8, !tbaa !137
  call void (ptr, i32, i32, ptr, ptr, ptr, ...) @IDAProcessError(ptr noundef %24, i32 noundef -6, i32 noundef 5740, ptr noundef @__func__.IDAHandleFailure, ptr noundef @.str, ptr noundef @.str.72, double noundef %27)
  store i32 -6, ptr %3, align 4
  br label %96

28:                                               ; preds = %2
  %29 = load ptr, ptr %4, align 8, !tbaa !8
  %30 = load ptr, ptr %4, align 8, !tbaa !8
  %31 = getelementptr inbounds nuw %struct.IDAMemRec, ptr %30, i32 0, i32 127
  %32 = load double, ptr %31, align 8, !tbaa !137
  call void (ptr, i32, i32, ptr, ptr, ptr, ...) @IDAProcessError(ptr noundef %29, i32 noundef -7, i32 noundef 5745, ptr noundef @__func__.IDAHandleFailure, ptr noundef @.str, ptr noundef @.str.73, double noundef %32)
  store i32 -7, ptr %3, align 4
  br label %96

33:                                               ; preds = %2
  %34 = load ptr, ptr %4, align 8, !tbaa !8
  %35 = load ptr, ptr %4, align 8, !tbaa !8
  %36 = getelementptr inbounds nuw %struct.IDAMemRec, ptr %35, i32 0, i32 127
  %37 = load double, ptr %36, align 8, !tbaa !137
  call void (ptr, i32, i32, ptr, ptr, ptr, ...) @IDAProcessError(ptr noundef %34, i32 noundef -9, i32 noundef 5750, ptr noundef @__func__.IDAHandleFailure, ptr noundef @.str, ptr noundef @.str.74, double noundef %37)
  store i32 -9, ptr %3, align 4
  br label %96

38:                                               ; preds = %2
  %39 = load ptr, ptr %4, align 8, !tbaa !8
  %40 = load ptr, ptr %4, align 8, !tbaa !8
  %41 = getelementptr inbounds nuw %struct.IDAMemRec, ptr %40, i32 0, i32 127
  %42 = load double, ptr %41, align 8, !tbaa !137
  call void (ptr, i32, i32, ptr, ptr, ptr, ...) @IDAProcessError(ptr noundef %39, i32 noundef -8, i32 noundef 5755, ptr noundef @__func__.IDAHandleFailure, ptr noundef @.str, ptr noundef @.str.75, double noundef %42)
  store i32 -8, ptr %3, align 4
  br label %96

43:                                               ; preds = %2
  %44 = load ptr, ptr %4, align 8, !tbaa !8
  %45 = load ptr, ptr %4, align 8, !tbaa !8
  %46 = getelementptr inbounds nuw %struct.IDAMemRec, ptr %45, i32 0, i32 127
  %47 = load double, ptr %46, align 8, !tbaa !137
  call void (ptr, i32, i32, ptr, ptr, ptr, ...) @IDAProcessError(ptr noundef %44, i32 noundef -33, i32 noundef 5760, ptr noundef @__func__.IDAHandleFailure, ptr noundef @.str, ptr noundef @.str.76, double noundef %47)
  store i32 -33, ptr %3, align 4
  br label %96

48:                                               ; preds = %2
  %49 = load ptr, ptr %4, align 8, !tbaa !8
  %50 = load ptr, ptr %4, align 8, !tbaa !8
  %51 = getelementptr inbounds nuw %struct.IDAMemRec, ptr %50, i32 0, i32 127
  %52 = load double, ptr %51, align 8, !tbaa !137
  call void (ptr, i32, i32, ptr, ptr, ptr, ...) @IDAProcessError(ptr noundef %49, i32 noundef -31, i32 noundef 5765, ptr noundef @__func__.IDAHandleFailure, ptr noundef @.str, ptr noundef @.str.57, double noundef %52)
  store i32 -31, ptr %3, align 4
  br label %96

53:                                               ; preds = %2
  %54 = load ptr, ptr %4, align 8, !tbaa !8
  %55 = load ptr, ptr %4, align 8, !tbaa !8
  %56 = getelementptr inbounds nuw %struct.IDAMemRec, ptr %55, i32 0, i32 127
  %57 = load double, ptr %56, align 8, !tbaa !137
  call void (ptr, i32, i32, ptr, ptr, ptr, ...) @IDAProcessError(ptr noundef %54, i32 noundef -42, i32 noundef 5770, ptr noundef @__func__.IDAHandleFailure, ptr noundef @.str, ptr noundef @.str.77, double noundef %57)
  store i32 -42, ptr %3, align 4
  br label %96

58:                                               ; preds = %2
  %59 = load ptr, ptr %4, align 8, !tbaa !8
  %60 = load ptr, ptr %4, align 8, !tbaa !8
  %61 = getelementptr inbounds nuw %struct.IDAMemRec, ptr %60, i32 0, i32 127
  %62 = load double, ptr %61, align 8, !tbaa !137
  call void (ptr, i32, i32, ptr, ptr, ptr, ...) @IDAProcessError(ptr noundef %59, i32 noundef -41, i32 noundef 5775, ptr noundef @__func__.IDAHandleFailure, ptr noundef @.str, ptr noundef @.str.78, double noundef %62)
  store i32 -41, ptr %3, align 4
  br label %96

63:                                               ; preds = %2
  %64 = load ptr, ptr %4, align 8, !tbaa !8
  %65 = load ptr, ptr %4, align 8, !tbaa !8
  %66 = getelementptr inbounds nuw %struct.IDAMemRec, ptr %65, i32 0, i32 127
  %67 = load double, ptr %66, align 8, !tbaa !137
  call void (ptr, i32, i32, ptr, ptr, ptr, ...) @IDAProcessError(ptr noundef %64, i32 noundef -53, i32 noundef 5780, ptr noundef @__func__.IDAHandleFailure, ptr noundef @.str, ptr noundef @.str.79, double noundef %67)
  store i32 -53, ptr %3, align 4
  br label %96

68:                                               ; preds = %2
  %69 = load ptr, ptr %4, align 8, !tbaa !8
  %70 = load ptr, ptr %4, align 8, !tbaa !8
  %71 = getelementptr inbounds nuw %struct.IDAMemRec, ptr %70, i32 0, i32 127
  %72 = load double, ptr %71, align 8, !tbaa !137
  call void (ptr, i32, i32, ptr, ptr, ptr, ...) @IDAProcessError(ptr noundef %69, i32 noundef -51, i32 noundef 5785, ptr noundef @__func__.IDAHandleFailure, ptr noundef @.str, ptr noundef @.str.62, double noundef %72)
  store i32 -51, ptr %3, align 4
  br label %96

73:                                               ; preds = %2
  %74 = load ptr, ptr %4, align 8, !tbaa !8
  %75 = load ptr, ptr %4, align 8, !tbaa !8
  %76 = getelementptr inbounds nuw %struct.IDAMemRec, ptr %75, i32 0, i32 127
  %77 = load double, ptr %76, align 8, !tbaa !137
  call void (ptr, i32, i32, ptr, ptr, ptr, ...) @IDAProcessError(ptr noundef %74, i32 noundef -11, i32 noundef 5790, ptr noundef @__func__.IDAHandleFailure, ptr noundef @.str, ptr noundef @.str.80, double noundef %77)
  store i32 -11, ptr %3, align 4
  br label %96

78:                                               ; preds = %2
  call void (ptr, i32, i32, ptr, ptr, ptr, ...) @IDAProcessError(ptr noundef null, i32 noundef -20, i32 noundef 5795, ptr noundef @__func__.IDAHandleFailure, ptr noundef @.str, ptr noundef @.str.3)
  store i32 -20, ptr %3, align 4
  br label %96

79:                                               ; preds = %2
  %80 = load ptr, ptr %4, align 8, !tbaa !8
  %81 = load ptr, ptr %4, align 8, !tbaa !8
  %82 = getelementptr inbounds nuw %struct.IDAMemRec, ptr %81, i32 0, i32 127
  %83 = load double, ptr %82, align 8, !tbaa !137
  call void (ptr, i32, i32, ptr, ptr, ptr, ...) @IDAProcessError(ptr noundef %80, i32 noundef -20, i32 noundef 5799, ptr noundef @__func__.IDAHandleFailure, ptr noundef @.str, ptr noundef @.str.81, double noundef %83)
  store i32 -20, ptr %3, align 4
  br label %96

84:                                               ; preds = %2
  %85 = load ptr, ptr %4, align 8, !tbaa !8
  %86 = load ptr, ptr %4, align 8, !tbaa !8
  %87 = getelementptr inbounds nuw %struct.IDAMemRec, ptr %86, i32 0, i32 127
  %88 = load double, ptr %87, align 8, !tbaa !137
  call void (ptr, i32, i32, ptr, ptr, ptr, ...) @IDAProcessError(ptr noundef %85, i32 noundef -16, i32 noundef 5804, ptr noundef @__func__.IDAHandleFailure, ptr noundef @.str, ptr noundef @.str.82, double noundef %88)
  store i32 -16, ptr %3, align 4
  br label %96

89:                                               ; preds = %2
  %90 = load ptr, ptr %4, align 8, !tbaa !8
  %91 = load ptr, ptr %4, align 8, !tbaa !8
  %92 = getelementptr inbounds nuw %struct.IDAMemRec, ptr %91, i32 0, i32 127
  %93 = load double, ptr %92, align 8, !tbaa !137
  call void (ptr, i32, i32, ptr, ptr, ptr, ...) @IDAProcessError(ptr noundef %90, i32 noundef -17, i32 noundef 5808, ptr noundef @__func__.IDAHandleFailure, ptr noundef @.str, ptr noundef @.str.83, double noundef %93)
  store i32 -17, ptr %3, align 4
  br label %96

94:                                               ; preds = %2
  %95 = load ptr, ptr %4, align 8, !tbaa !8
  call void (ptr, i32, i32, ptr, ptr, ptr, ...) @IDAProcessError(ptr noundef %95, i32 noundef -99, i32 noundef 5814, ptr noundef @__func__.IDAHandleFailure, ptr noundef @.str, ptr noundef @.str.84)
  store i32 -99, ptr %3, align 4
  br label %96

96:                                               ; preds = %94, %89, %84, %79, %78, %73, %68, %63, %58, %53, %48, %43, %38, %33, %28, %23, %15, %7
  %97 = load i32, ptr %3, align 4
  ret i32 %97
}