; Function Attrs: nounwind uwtable
define internal fastcc range(i32 -99, -2) i32 @IDAHandleFailure(ptr noundef nonnull captures(address_is_null) %0, i32 noundef %1) unnamed_addr #0 {
  switch i32 %1, label %56 [
    i32 -3, label %3
    i32 -4, label %8
    i32 -6, label %13
    i32 -7, label %16
    i32 -9, label %19
    i32 -8, label %22
    i32 -33, label %25
    i32 -31, label %28
    i32 -42, label %31
    i32 -41, label %34
    i32 -53, label %37
    i32 -51, label %40
    i32 -11, label %43
    i32 -20, label %46
    i32 -9999, label %47
    i32 -16, label %50
    i32 -17, label %53
  ]

3:                                                ; preds = %2
  %4 = getelementptr inbounds nuw i8, ptr %0, i64 1272
  %5 = load double, ptr %4, align 8, !tbaa !125
  %6 = getelementptr inbounds nuw i8, ptr %0, i64 1248
  %7 = load double, ptr %6, align 8, !tbaa !216
  tail call void (ptr, i32, i32, ptr, ptr, ptr, ...) @IDAProcessError(ptr noundef nonnull %0, i32 noundef -3, i32 noundef 5730, ptr noundef nonnull @__func__.IDAHandleFailure, ptr noundef nonnull @.str, ptr noundef nonnull @.str.70, double noundef %5, double noundef %7)
  br label %57

8:                                                ; preds = %2
  %9 = getelementptr inbounds nuw i8, ptr %0, i64 1272
  %10 = load double, ptr %9, align 8, !tbaa !125
  %11 = getelementptr inbounds nuw i8, ptr %0, i64 1248
  %12 = load double, ptr %11, align 8, !tbaa !216
  tail call void (ptr, i32, i32, ptr, ptr, ptr, ...) @IDAProcessError(ptr noundef nonnull %0, i32 noundef -4, i32 noundef 5735, ptr noundef nonnull @__func__.IDAHandleFailure, ptr noundef nonnull @.str, ptr noundef nonnull @.str.71, double noundef %10, double noundef %12)
  br label %57

13:                                               ; preds = %2
  %14 = getelementptr inbounds nuw i8, ptr %0, i64 1272
  %15 = load double, ptr %14, align 8, !tbaa !125
  tail call void (ptr, i32, i32, ptr, ptr, ptr, ...) @IDAProcessError(ptr noundef nonnull %0, i32 noundef -6, i32 noundef 5740, ptr noundef nonnull @__func__.IDAHandleFailure, ptr noundef nonnull @.str, ptr noundef nonnull @.str.72, double noundef %15)
  br label %57

16:                                               ; preds = %2
  %17 = getelementptr inbounds nuw i8, ptr %0, i64 1272
  %18 = load double, ptr %17, align 8, !tbaa !125
  tail call void (ptr, i32, i32, ptr, ptr, ptr, ...) @IDAProcessError(ptr noundef nonnull %0, i32 noundef -7, i32 noundef 5745, ptr noundef nonnull @__func__.IDAHandleFailure, ptr noundef nonnull @.str, ptr noundef nonnull @.str.73, double noundef %18)
  br label %57

19:                                               ; preds = %2
  %20 = getelementptr inbounds nuw i8, ptr %0, i64 1272
  %21 = load double, ptr %20, align 8, !tbaa !125
  tail call void (ptr, i32, i32, ptr, ptr, ptr, ...) @IDAProcessError(ptr noundef nonnull %0, i32 noundef -9, i32 noundef 5750, ptr noundef nonnull @__func__.IDAHandleFailure, ptr noundef nonnull @.str, ptr noundef nonnull @.str.74, double noundef %21)
  br label %57

22:                                               ; preds = %2
  %23 = getelementptr inbounds nuw i8, ptr %0, i64 1272
  %24 = load double, ptr %23, align 8, !tbaa !125
  tail call void (ptr, i32, i32, ptr, ptr, ptr, ...) @IDAProcessError(ptr noundef nonnull %0, i32 noundef -8, i32 noundef 5755, ptr noundef nonnull @__func__.IDAHandleFailure, ptr noundef nonnull @.str, ptr noundef nonnull @.str.75, double noundef %24)
  br label %57

25:                                               ; preds = %2
  %26 = getelementptr inbounds nuw i8, ptr %0, i64 1272
  %27 = load double, ptr %26, align 8, !tbaa !125
  tail call void (ptr, i32, i32, ptr, ptr, ptr, ...) @IDAProcessError(ptr noundef nonnull %0, i32 noundef -33, i32 noundef 5760, ptr noundef nonnull @__func__.IDAHandleFailure, ptr noundef nonnull @.str, ptr noundef nonnull @.str.76, double noundef %27)
  br label %57

28:                                               ; preds = %2
  %29 = getelementptr inbounds nuw i8, ptr %0, i64 1272
  %30 = load double, ptr %29, align 8, !tbaa !125
  tail call void (ptr, i32, i32, ptr, ptr, ptr, ...) @IDAProcessError(ptr noundef nonnull %0, i32 noundef -31, i32 noundef 5765, ptr noundef nonnull @__func__.IDAHandleFailure, ptr noundef nonnull @.str, ptr noundef nonnull @.str.57, double noundef %30)
  br label %57

31:                                               ; preds = %2
  %32 = getelementptr inbounds nuw i8, ptr %0, i64 1272
  %33 = load double, ptr %32, align 8, !tbaa !125
  tail call void (ptr, i32, i32, ptr, ptr, ptr, ...) @IDAProcessError(ptr noundef nonnull %0, i32 noundef -42, i32 noundef 5770, ptr noundef nonnull @__func__.IDAHandleFailure, ptr noundef nonnull @.str, ptr noundef nonnull @.str.77, double noundef %33)
  br label %57

34:                                               ; preds = %2
  %35 = getelementptr inbounds nuw i8, ptr %0, i64 1272
  %36 = load double, ptr %35, align 8, !tbaa !125
  tail call void (ptr, i32, i32, ptr, ptr, ptr, ...) @IDAProcessError(ptr noundef nonnull %0, i32 noundef -41, i32 noundef 5775, ptr noundef nonnull @__func__.IDAHandleFailure, ptr noundef nonnull @.str, ptr noundef nonnull @.str.78, double noundef %36)
  br label %57

37:                                               ; preds = %2
  %38 = getelementptr inbounds nuw i8, ptr %0, i64 1272
  %39 = load double, ptr %38, align 8, !tbaa !125
  tail call void (ptr, i32, i32, ptr, ptr, ptr, ...) @IDAProcessError(ptr noundef nonnull %0, i32 noundef -53, i32 noundef 5780, ptr noundef nonnull @__func__.IDAHandleFailure, ptr noundef nonnull @.str, ptr noundef nonnull @.str.79, double noundef %39)
  br label %57

40:                                               ; preds = %2
  %41 = getelementptr inbounds nuw i8, ptr %0, i64 1272
  %42 = load double, ptr %41, align 8, !tbaa !125
  tail call void (ptr, i32, i32, ptr, ptr, ptr, ...) @IDAProcessError(ptr noundef nonnull %0, i32 noundef -51, i32 noundef 5785, ptr noundef nonnull @__func__.IDAHandleFailure, ptr noundef nonnull @.str, ptr noundef nonnull @.str.62, double noundef %42)
  br label %57

43:                                               ; preds = %2
  %44 = getelementptr inbounds nuw i8, ptr %0, i64 1272
  %45 = load double, ptr %44, align 8, !tbaa !125
  tail call void (ptr, i32, i32, ptr, ptr, ptr, ...) @IDAProcessError(ptr noundef nonnull %0, i32 noundef -11, i32 noundef 5790, ptr noundef nonnull @__func__.IDAHandleFailure, ptr noundef nonnull @.str, ptr noundef nonnull @.str.80, double noundef %45)
  br label %57

46:                                               ; preds = %2
  tail call void (ptr, i32, i32, ptr, ptr, ptr, ...) @IDAProcessError(ptr noundef null, i32 noundef -20, i32 noundef 5795, ptr noundef nonnull @__func__.IDAHandleFailure, ptr noundef nonnull @.str, ptr noundef nonnull @.str.3)
  br label %57

47:                                               ; preds = %2
  %48 = getelementptr inbounds nuw i8, ptr %0, i64 1272
  %49 = load double, ptr %48, align 8, !tbaa !125
  tail call void (ptr, i32, i32, ptr, ptr, ptr, ...) @IDAProcessError(ptr noundef nonnull %0, i32 noundef -20, i32 noundef 5799, ptr noundef nonnull @__func__.IDAHandleFailure, ptr noundef nonnull @.str, ptr noundef nonnull @.str.81, double noundef %49)
  br label %57

50:                                               ; preds = %2
  %51 = getelementptr inbounds nuw i8, ptr %0, i64 1272
  %52 = load double, ptr %51, align 8, !tbaa !125
  tail call void (ptr, i32, i32, ptr, ptr, ptr, ...) @IDAProcessError(ptr noundef nonnull %0, i32 noundef -16, i32 noundef 5804, ptr noundef nonnull @__func__.IDAHandleFailure, ptr noundef nonnull @.str, ptr noundef nonnull @.str.82, double noundef %52)
  br label %57

53:                                               ; preds = %2
  %54 = getelementptr inbounds nuw i8, ptr %0, i64 1272
  %55 = load double, ptr %54, align 8, !tbaa !125
  tail call void (ptr, i32, i32, ptr, ptr, ptr, ...) @IDAProcessError(ptr noundef nonnull %0, i32 noundef -17, i32 noundef 5808, ptr noundef nonnull @__func__.IDAHandleFailure, ptr noundef nonnull @.str, ptr noundef nonnull @.str.83, double noundef %55)
  br label %57

56:                                               ; preds = %2
  tail call void (ptr, i32, i32, ptr, ptr, ptr, ...) @IDAProcessError(ptr noundef nonnull %0, i32 noundef -99, i32 noundef 5814, ptr noundef nonnull @__func__.IDAHandleFailure, ptr noundef nonnull @.str, ptr noundef nonnull @.str.84)
  br label %57

57:                                               ; preds = %56, %53, %50, %47, %46, %43, %40, %37, %34, %31, %28, %25, %22, %19, %16, %13, %8, %3
  %.0 = phi i32 [ -99, %56 ], [ -17, %53 ], [ -16, %50 ], [ -20, %47 ], [ -20, %46 ], [ -11, %43 ], [ -51, %40 ], [ -53, %37 ], [ -41, %34 ], [ -42, %31 ], [ -31, %28 ], [ -33, %25 ], [ -8, %22 ], [ -9, %19 ], [ -7, %16 ], [ -6, %13 ], [ -4, %8 ], [ -3, %3 ]
  ret i32 %.0
}